; Function Attrs: mustprogress nofree norecurse nosync nounwind willreturn memory(read, inaccessiblemem: none) uwtable
define hidden noundef zeroext i1 @_ZNK3sat6clause12satisfied_byERK7svectorI5lbooljE(ptr noundef nonnull readonly align 4 dereferenceable(20) %this, ptr nocapture noundef nonnull readonly align 8 dereferenceable(8) %m) local_unnamed_addr #6 align 2 {
entry:
  %m_size.i = getelementptr inbounds i8, ptr %this, i64 4
  %0 = load i32, ptr %m_size.i, align 4
  %idx.ext.i = zext i32 %0 to i64
  %add.ptr.i.idx = shl nuw nsw i64 %idx.ext.i, 2
  %1 = getelementptr i8, ptr %this, i64 %add.ptr.i.idx
  %add.ptr.i.ptr = getelementptr i8, ptr %1, i64 20
  %cmp.not11.not = icmp eq i32 %0, 0
  br i1 %cmp.not11.not, label %return, label %for.body.lr.ph

for.body.lr.ph:                                   ; preds = %entry
  %m_lits.i.ptr = getelementptr inbounds i8, ptr %this, i64 20
  %2 = load ptr, ptr %m, align 8
  br label %for.body

for.body:                                         ; preds = %for.body.lr.ph, %for.inc
  %__begin1.012 = phi ptr [ %m_lits.i.ptr, %for.body.lr.ph ], [ %incdec.ptr, %for.inc ]
  %3 = load i32, ptr %__begin1.012, align 4
  %4 = and i32 %3, 1
  %tobool.i.not = icmp eq i32 %4, 0
  %shr.i6 = lshr i32 %3, 1
  %idxprom.i7 = zext nneg i32 %shr.i6 to i64
  %arrayidx.i8 = getelementptr inbounds i32, ptr %2, i64 %idxprom.i7
  %5 = load i32, ptr %arrayidx.i8, align 4
  br i1 %tobool.i.not, label %if.else, label %if.then

if.then:                                          ; preds = %for.body
  %cmp6 = icmp eq i32 %5, -1
  br i1 %cmp6, label %return, label %for.inc

if.else:                                          ; preds = %for.body
  %cmp10 = icmp eq i32 %5, 1
  br i1 %cmp10, label %return, label %for.inc

for.inc:                                          ; preds = %if.then, %if.else
  %incdec.ptr = getelementptr inbounds i8, ptr %__begin1.012, i64 4
  %cmp.not.not = icmp eq ptr %incdec.ptr, %add.ptr.i.ptr
  br i1 %cmp.not.not, label %return, label %for.body

return:                                           ; preds = %if.then, %if.else, %for.inc, %entry
  %cmp.not.lcssa = phi i1 [ false, %entry ], [ false, %for.inc ], [ true, %if.else ], [ true, %if.then ]
  ret i1 %cmp.not.lcssa
}